target datalayout = "e-m:e-p270:32:32-p271:32:32-p272:64:64-i64:64-i128:128-f80:128-n8:16:32:64-S128"
target triple = "x86_64-pc-linux-gnu"

%struct.Vec_Int_t_ = type { i32, i32, ptr }
%struct.Gia_Man_t_ = type { ptr, ptr, i32, i32, i32, i32, ptr, ptr, i32, i32, i32, ptr, ptr, %struct.Vec_Int_t_, %struct.Vec_Int_t_, i32, i32, i32, %struct.Vec_Int_t_, ptr, ptr, ptr, i32, i32, i32, i32, ptr, ptr, ptr, ptr, ptr, i32, i32, ptr, i32, ptr, ptr, ptr, ptr, ptr, ptr, ptr, ptr, ptr, ptr, ptr, ptr, ptr, ptr, ptr, ptr, ptr, ptr, %struct.Vec_Int_t_, %struct.Vec_Int_t_, ptr, ptr, ptr, ptr, ptr, ptr, ptr, ptr, ptr, ptr, ptr, ptr, ptr, ptr, ptr, ptr, ptr, ptr, ptr, ptr, ptr, i32, float, float, ptr, ptr, i32, ptr, ptr, ptr, ptr, ptr, ptr, ptr, ptr, ptr, ptr, ptr, ptr, ptr, ptr, ptr, i64, i64, ptr, ptr, i32, i32, i32, i32, i32, i32, i32, i32, i32, i32, i32, i32, ptr, ptr, ptr, ptr, ptr, ptr, ptr, ptr, i32, i32, i32, ptr, i32, i32, ptr, ptr, ptr, ptr, ptr, ptr, i32, i32, ptr, %struct.Vec_Int_t_, %struct.Vec_Int_t_, %struct.Vec_Int_t_, ptr, ptr, ptr, i32, i32, i32, i32, ptr, ptr, ptr, ptr, ptr }
%struct.Jf_Par_t_ = type { i32, i32, i32, i32, i32, i32, i32, i32, i32, i32, i32, i32, i32, i32, i32, i32, i32, i32, i32, i32, i32, i32, i32, i32, i32, i32, i32, i32, i32, i32, i32, i32, i32, i32, i32, i32, i32, i32, i32, i32, i64, i64, i64, i64, i64, i64, i64, i64, i32, float, float, float, float, ptr, ptr }

; Function Attrs: inlinehint nounwind uwtable
define internal i32 @Gia_ManRegNum(ptr noundef %0) #1 {
  %2 = alloca ptr, align 8
  store ptr %0, ptr %2, align 8, !tbaa !28
  %3 = load ptr, ptr %2, align 8, !tbaa !28
  %4 = getelementptr inbounds nuw %struct.Gia_Man_t_, ptr %3, i32 0, i32 2
  %5 = load i32, ptr %4, align 8, !tbaa !182
  ret i32 %5
}

; Function Attrs: inlinehint nounwind uwtable
define internal ptr @Abc_UtilStrsav(ptr noundef %0) #1 {
  %2 = alloca ptr, align 8
  store ptr %0, ptr %2, align 8, !tbaa !110
  %3 = load ptr, ptr %2, align 8, !tbaa !110
  %4 = icmp ne ptr %3, null
  br i1 %4, label %5, label %13

5:                                                ; preds = %1
  %6 = load ptr, ptr %2, align 8, !tbaa !110
  %7 = call i64 @strlen(ptr noundef %6) #17
  %8 = add i64 %7, 1
  %9 = mul i64 1, %8
  %10 = call noalias ptr @malloc(i64 noundef %9) #15
  %11 = load ptr, ptr %2, align 8, !tbaa !110
  %12 = call ptr @strcpy(ptr noundef %10, ptr noundef %11) #14
  br label %14

13:                                               ; preds = %1
  br label %14

14:                                               ; preds = %13, %5
  %15 = phi ptr [ %12, %5 ], [ null, %13 ]
  ret ptr %15
}

; Function Attrs: nounwind uwtable
define ptr @Gia_ManPerformLfMapping(ptr noundef %0, ptr noundef %1, i32 noundef %2) #0 {
  %4 = alloca ptr, align 8
  %5 = alloca ptr, align 8
  %6 = alloca ptr, align 8
  %7 = alloca i32, align 4
  %8 = alloca ptr, align 8
  %9 = alloca i32, align 4
  store ptr %0, ptr %5, align 8, !tbaa !28
  store ptr %1, ptr %6, align 8, !tbaa !194
  store i32 %2, ptr %7, align 4, !tbaa !26
  call void @llvm.lifetime.start.p0(i64 8, ptr %8) #14
  %10 = load ptr, ptr %5, align 8, !tbaa !28
  %11 = getelementptr inbounds nuw %struct.Gia_Man_t_, ptr %10, i32 0, i32 95
  %12 = load ptr, ptr %11, align 8, !tbaa !151
  %13 = icmp ne ptr %12, null
  br i1 %13, label %14, label %43

14:                                               ; preds = %3
  %15 = load i32, ptr %7, align 4, !tbaa !26
  %16 = icmp ne i32 %15, 0
  br i1 %16, label %17, label %39

17:                                               ; preds = %14
  %18 = load ptr, ptr %5, align 8, !tbaa !28
  %19 = call ptr @Gia_ManDupUnnormalize(ptr noundef %18)
  store ptr %19, ptr %8, align 8, !tbaa !28
  %20 = load ptr, ptr %8, align 8, !tbaa !28
  %21 = icmp eq ptr %20, null
  br i1 %21, label %22, label %23

22:                                               ; preds = %17
  store ptr null, ptr %4, align 8
  store i32 1, ptr %9, align 4
  br label %105

23:                                               ; preds = %17
  %24 = load ptr, ptr %8, align 8, !tbaa !28
  %25 = load ptr, ptr %5, align 8, !tbaa !28
  call void @Gia_ManTransferTiming(ptr noundef %24, ptr noundef %25)
  %26 = load ptr, ptr %8, align 8, !tbaa !28
  store ptr %26, ptr %5, align 8, !tbaa !28
  %27 = load ptr, ptr %5, align 8, !tbaa !28
  %28 = getelementptr inbounds nuw %struct.Gia_Man_t_, ptr %27, i32 0, i32 95
  %29 = load ptr, ptr %28, align 8, !tbaa !151
  %30 = call ptr @Tim_ManGetArrTimes(ptr noundef %29)
  %31 = load ptr, ptr %6, align 8, !tbaa !194
  %32 = getelementptr inbounds nuw %struct.Jf_Par_t_, ptr %31, i32 0, i32 53
  store ptr %30, ptr %32, align 8, !tbaa !198
  %33 = load ptr, ptr %5, align 8, !tbaa !28
  %34 = getelementptr inbounds nuw %struct.Gia_Man_t_, ptr %33, i32 0, i32 95
  %35 = load ptr, ptr %34, align 8, !tbaa !151
  %36 = call ptr @Tim_ManGetReqTimes(ptr noundef %35)
  %37 = load ptr, ptr %6, align 8, !tbaa !194
  %38 = getelementptr inbounds nuw %struct.Jf_Par_t_, ptr %37, i32 0, i32 54
  store ptr %36, ptr %38, align 8, !tbaa !206
  br label %42

39:                                               ; preds = %14
  %40 = load ptr, ptr %5, align 8, !tbaa !28
  %41 = call ptr @Gia_ManDup(ptr noundef %40)
  store ptr %41, ptr %5, align 8, !tbaa !28
  br label %42

42:                                               ; preds = %39, %23
  br label %46

43:                                               ; preds = %3
  %44 = load ptr, ptr %5, align 8, !tbaa !28
  %45 = call ptr @Gia_ManDup(ptr noundef %44)
  store ptr %45, ptr %5, align 8, !tbaa !28
  br label %46

46:                                               ; preds = %43, %42
  %47 = load ptr, ptr %5, align 8, !tbaa !28
  %48 = load ptr, ptr %6, align 8, !tbaa !194
  %49 = call ptr @Lf_ManPerformMappingInt(ptr noundef %47, ptr noundef %48)
  store ptr %49, ptr %8, align 8, !tbaa !28
  %50 = load ptr, ptr %8, align 8, !tbaa !28
  %51 = load ptr, ptr %5, align 8, !tbaa !28
  %52 = icmp ne ptr %50, %51
  br i1 %52, label %53, label %96

53:                                               ; preds = %46
  %54 = load ptr, ptr %8, align 8, !tbaa !28
  %55 = getelementptr inbounds nuw %struct.Gia_Man_t_, ptr %54, i32 0, i32 0
  %56 = load ptr, ptr %55, align 8, !tbaa !171
  %57 = icmp ne ptr %56, null
  br i1 %57, label %58, label %64

58:                                               ; preds = %53
  %59 = load ptr, ptr %8, align 8, !tbaa !28
  %60 = getelementptr inbounds nuw %struct.Gia_Man_t_, ptr %59, i32 0, i32 0
  %61 = load ptr, ptr %60, align 8, !tbaa !171
  call void @free(ptr noundef %61) #14
  %62 = load ptr, ptr %8, align 8, !tbaa !28
  %63 = getelementptr inbounds nuw %struct.Gia_Man_t_, ptr %62, i32 0, i32 0
  store ptr null, ptr %63, align 8, !tbaa !171
  br label %65

64:                                               ; preds = %53
  br label %65

65:                                               ; preds = %64, %58
  %66 = load ptr, ptr %8, align 8, !tbaa !28
  %67 = getelementptr inbounds nuw %struct.Gia_Man_t_, ptr %66, i32 0, i32 1
  %68 = load ptr, ptr %67, align 8, !tbaa !172
  %69 = icmp ne ptr %68, null
  br i1 %69, label %70, label %76

70:                                               ; preds = %65
  %71 = load ptr, ptr %8, align 8, !tbaa !28
  %72 = getelementptr inbounds nuw %struct.Gia_Man_t_, ptr %71, i32 0, i32 1
  %73 = load ptr, ptr %72, align 8, !tbaa !172
  call void @free(ptr noundef %73) #14
  %74 = load ptr, ptr %8, align 8, !tbaa !28
  %75 = getelementptr inbounds nuw %struct.Gia_Man_t_, ptr %74, i32 0, i32 1
  store ptr null, ptr %75, align 8, !tbaa !172
  br label %77

76:                                               ; preds = %65
  br label %77

77:                                               ; preds = %76, %70
  %78 = load ptr, ptr %5, align 8, !tbaa !28
  %79 = getelementptr inbounds nuw %struct.Gia_Man_t_, ptr %78, i32 0, i32 0
  %80 = load ptr, ptr %79, align 8, !tbaa !171
  %81 = call ptr @Abc_UtilStrsav(ptr noundef %80)
  %82 = load ptr, ptr %8, align 8, !tbaa !28
  %83 = getelementptr inbounds nuw %struct.Gia_Man_t_, ptr %82, i32 0, i32 0
  store ptr %81, ptr %83, align 8, !tbaa !171
  %84 = load ptr, ptr %5, align 8, !tbaa !28
  %85 = getelementptr inbounds nuw %struct.Gia_Man_t_, ptr %84, i32 0, i32 1
  %86 = load ptr, ptr %85, align 8, !tbaa !172
  %87 = call ptr @Abc_UtilStrsav(ptr noundef %86)
  %88 = load ptr, ptr %8, align 8, !tbaa !28
  %89 = getelementptr inbounds nuw %struct.Gia_Man_t_, ptr %88, i32 0, i32 1
  store ptr %87, ptr %89, align 8, !tbaa !172
  %90 = load ptr, ptr %8, align 8, !tbaa !28
  %91 = load ptr, ptr %5, align 8, !tbaa !28
  %92 = call i32 @Gia_ManRegNum(ptr noundef %91)
  call void @Gia_ManSetRegNum(ptr noundef %90, i32 noundef %92)
  %93 = load ptr, ptr %8, align 8, !tbaa !28
  %94 = load ptr, ptr %5, align 8, !tbaa !28
  call void @Gia_ManTransferTiming(ptr noundef %93, ptr noundef %94)
  %95 = load ptr, ptr %5, align 8, !tbaa !28
  call void @Gia_ManStop(ptr noundef %95)
  br label %96

96:                                               ; preds = %77, %46
  %97 = load ptr, ptr %8, align 8, !tbaa !28
  store ptr %97, ptr %5, align 8, !tbaa !28
  %98 = call ptr @Gia_ManDupNormalize(ptr noundef %97, i32 noundef 0)
  store ptr %98, ptr %8, align 8, !tbaa !28
  %99 = load ptr, ptr %8, align 8, !tbaa !28
  %100 = load ptr, ptr %5, align 8, !tbaa !28
  call void @Gia_ManTransferMapping(ptr noundef %99, ptr noundef %100)
  %101 = load ptr, ptr %8, align 8, !tbaa !28
  %102 = load ptr, ptr %5, align 8, !tbaa !28
  call void @Gia_ManTransferTiming(ptr noundef %101, ptr noundef %102)
  %103 = load ptr, ptr %5, align 8, !tbaa !28
  call void @Gia_ManStop(ptr noundef %103)
  %104 = load ptr, ptr %8, align 8, !tbaa !28
  store ptr %104, ptr %4, align 8
  store i32 1, ptr %9, align 4
  br label %105

105:                                              ; preds = %96, %22
  call void @llvm.lifetime.end.p0(i64 8, ptr %8) #14
  %106 = load ptr, ptr %4, align 8
  ret ptr %106
}