; Function Attrs: nounwind uwtable
define noundef ptr @Gia_ManPerformLfMapping(ptr noundef %0, ptr noundef %1, i32 noundef %2) local_unnamed_addr #5 {
  %4 = getelementptr inbounds nuw i8, ptr %0, i64 736
  %5 = load ptr, ptr %4, align 8, !tbaa !177
  %.not = icmp eq ptr %5, null
  br i1 %.not, label %20, label %6

6:                                                ; preds = %3
  %.not44 = icmp eq i32 %2, 0
  br i1 %.not44, label %18, label %7

7:                                                ; preds = %6
  %8 = tail call ptr @Gia_ManDupUnnormalize(ptr noundef nonnull %0) #34
  %9 = icmp eq ptr %8, null
  br i1 %9, label %50, label %10

10:                                               ; preds = %7
  tail call void @Gia_ManTransferTiming(ptr noundef nonnull %8, ptr noundef nonnull %0) #34
  %11 = getelementptr inbounds nuw i8, ptr %8, i64 736
  %12 = load ptr, ptr %11, align 8, !tbaa !177
  %13 = tail call ptr @Tim_ManGetArrTimes(ptr noundef %12) #34
  %14 = getelementptr inbounds nuw i8, ptr %1, i64 248
  store ptr %13, ptr %14, align 8, !tbaa !234
  %15 = load ptr, ptr %11, align 8, !tbaa !177
  %16 = tail call ptr @Tim_ManGetReqTimes(ptr noundef %15) #34
  %17 = getelementptr inbounds nuw i8, ptr %1, i64 256
  store ptr %16, ptr %17, align 8, !tbaa !236
  br label %22

18:                                               ; preds = %6
  %19 = tail call ptr @Gia_ManDup(ptr noundef nonnull %0) #34
  br label %22

20:                                               ; preds = %3
  %21 = tail call ptr @Gia_ManDup(ptr noundef nonnull %0) #34
  br label %22

22:                                               ; preds = %10, %18, %20
  %.039 = phi ptr [ %8, %10 ], [ %19, %18 ], [ %21, %20 ]
  %23 = tail call ptr @Lf_ManPerformMappingInt(ptr noundef %.039, ptr noundef %1)
  %.not45 = icmp eq ptr %23, %.039
  br i1 %.not45, label %48, label %24

24:                                               ; preds = %22
  %25 = load ptr, ptr %23, align 8, !tbaa !200
  %.not46 = icmp eq ptr %25, null
  br i1 %.not46, label %27, label %26

26:                                               ; preds = %24
  tail call void @free(ptr noundef nonnull %25) #34
  store ptr null, ptr %23, align 8, !tbaa !200
  br label %27

27:                                               ; preds = %24, %26
  %28 = getelementptr inbounds nuw i8, ptr %23, i64 8
  %29 = load ptr, ptr %28, align 8, !tbaa !201
  %.not47 = icmp eq ptr %29, null
  br i1 %.not47, label %31, label %30

30:                                               ; preds = %27
  tail call void @free(ptr noundef nonnull %29) #34
  store ptr null, ptr %28, align 8, !tbaa !201
  br label %31

31:                                               ; preds = %27, %30
  %32 = load ptr, ptr %.039, align 8, !tbaa !200
  %.not.i = icmp eq ptr %32, null
  br i1 %.not.i, label %Abc_UtilStrsav.exit, label %33

33:                                               ; preds = %31
  %34 = tail call i64 @strlen(ptr noundef nonnull readonly dereferenceable(1) %32) #37
  %35 = add i64 %34, 1
  %36 = tail call noalias ptr @malloc(i64 noundef %35) #33
  %37 = tail call ptr @strcpy(ptr noundef nonnull dereferenceable(1) %36, ptr noundef nonnull readonly dereferenceable(1) %32) #34
  br label %Abc_UtilStrsav.exit

Abc_UtilStrsav.exit:                              ; preds = %31, %33
  %38 = phi ptr [ %36, %33 ], [ null, %31 ]
  store ptr %38, ptr %23, align 8, !tbaa !200
  %39 = getelementptr inbounds nuw i8, ptr %.039, i64 8
  %40 = load ptr, ptr %39, align 8, !tbaa !201
  %.not.i48 = icmp eq ptr %40, null
  br i1 %.not.i48, label %Abc_UtilStrsav.exit49, label %41

41:                                               ; preds = %Abc_UtilStrsav.exit
  %42 = tail call i64 @strlen(ptr noundef nonnull readonly dereferenceable(1) %40) #37
  %43 = add i64 %42, 1
  %44 = tail call noalias ptr @malloc(i64 noundef %43) #33
  %45 = tail call ptr @strcpy(ptr noundef nonnull dereferenceable(1) %44, ptr noundef nonnull readonly dereferenceable(1) %40) #34
  br label %Abc_UtilStrsav.exit49

Abc_UtilStrsav.exit49:                            ; preds = %Abc_UtilStrsav.exit, %41
  %46 = phi ptr [ %44, %41 ], [ null, %Abc_UtilStrsav.exit ]
  store ptr %46, ptr %28, align 8, !tbaa !201
  %47 = getelementptr i8, ptr %.039, i64 16
  %.039.val = load i32, ptr %47, align 8, !tbaa !206
  tail call void @Gia_ManSetRegNum(ptr noundef nonnull %23, i32 noundef %.039.val) #34
  tail call void @Gia_ManTransferTiming(ptr noundef nonnull %23, ptr noundef nonnull %.039) #34
  tail call void @Gia_ManStop(ptr noundef nonnull %.039) #34
  br label %48

48:                                               ; preds = %Abc_UtilStrsav.exit49, %22
  %49 = tail call ptr @Gia_ManDupNormalize(ptr noundef %23, i32 noundef 0) #34
  tail call void @Gia_ManTransferMapping(ptr noundef %49, ptr noundef %23) #34
  tail call void @Gia_ManTransferTiming(ptr noundef %49, ptr noundef %23) #34
  tail call void @Gia_ManStop(ptr noundef %23) #34
  br label %50

50:                                               ; preds = %7, %48
  %.0 = phi ptr [ %49, %48 ], [ null, %7 ]
  ret ptr %.0
}